TN:
SF:/Applications/Xcode.app/Contents/Developer/Toolchains/XcodeDefault.xctoolchain/usr/include/c++/v1/__functional_base
FN:85,_ZNSt3__19addressofIKcEEPT_RS2_
FNDA:0,_ZNSt3__19addressofIKcEEPT_RS2_
FNF:1
FNH:0
DA:87,0
LF:1
LH:0
end_of_record
SF:/Applications/Xcode.app/Contents/Developer/Toolchains/XcodeDefault.xctoolchain/usr/include/c++/v1/__locale
FN:184,_ZNSt3__19use_facetINS_5ctypeIcEEEERKT_RKNS_6localeE
FN:588,_ZNKSt3__15ctypeIcE5widenEc
FNDA:2,_ZNSt3__19use_facetINS_5ctypeIcEEEERKT_RKNS_6localeE
FNDA:2,_ZNKSt3__15ctypeIcE5widenEc
FNF:2
FNH:2
DA:186,2
DA:590,2
LF:2
LH:2
end_of_record
SF:/Applications/Xcode.app/Contents/Developer/Toolchains/XcodeDefault.xctoolchain/usr/include/c++/v1/cstddef
FN:65,_ZNSt3__19nullptr_tC1EMNS0_5__natEi
FN:65,_ZNSt3__19nullptr_tC2EMNS0_5__natEi
FN:71,_ZNKSt3__19nullptr_tcvPT_INS_15basic_streambufIcNS_11char_traitsIcEEEEEEv
FN:85,_ZNSt3__115__get_nullptr_tEv
FNDA:1,_ZNSt3__19nullptr_tC1EMNS0_5__natEi
FNDA:1,_ZNSt3__19nullptr_tC2EMNS0_5__natEi
FNDA:1,_ZNKSt3__19nullptr_tcvPT_INS_15basic_streambufIcNS_11char_traitsIcEEEEEEv
FNDA:1,_ZNSt3__115__get_nullptr_tEv
FNF:4
FNH:4
DA:65,2
DA:71,1
DA:85,1
LF:3
LH:3
end_of_record
SF:/Applications/Xcode.app/Contents/Developer/Toolchains/XcodeDefault.xctoolchain/usr/include/c++/v1/ios
FN:337,_ZNKSt3__18ios_base5rdbufEv
FN:435,_ZNKSt3__18ios_base5flagsEv
FN:497,_ZNKSt3__18ios_base5widthEv
FN:504,_ZNSt3__18ios_base5widthEl
FN:522,_ZNSt3__18ios_base8setstateEj
FN:589,_ZNSt3__19basic_iosIcNS_11char_traitsIcEEE8setstateEj
FN:694,_ZNKSt3__19basic_iosIcNS_11char_traitsIcEEE5rdbufEv
FN:732,_ZNKSt3__19basic_iosIcNS_11char_traitsIcEEE5widenEc
FN:740,_ZNKSt3__19basic_iosIcNS_11char_traitsIcEEE4fillEv
FNDA:1,_ZNKSt3__18ios_base5rdbufEv
FNDA:1,_ZNKSt3__18ios_base5flagsEv
FNDA:1,_ZNKSt3__18ios_base5widthEv
FNDA:1,_ZNSt3__18ios_base5widthEl
FNDA:0,_ZNSt3__18ios_base8setstateEj
FNDA:0,_ZNSt3__19basic_iosIcNS_11char_traitsIcEEE8setstateEj
FNDA:1,_ZNKSt3__19basic_iosIcNS_11char_traitsIcEEE5rdbufEv
FNDA:2,_ZNKSt3__19basic_iosIcNS_11char_traitsIcEEE5widenEc
FNDA:1,_ZNKSt3__19basic_iosIcNS_11char_traitsIcEEE4fillEv
FNF:9
FNH:7
DA:337,1
DA:437,1
DA:499,1
DA:506,1
DA:507,1
DA:508,1
DA:524,0
DA:525,0
DA:589,0
DA:696,1
DA:734,6
DA:735,0
DA:742,1
DA:743,1
DA:744,1
LF:15
LH:11
end_of_record
SF:/Applications/Xcode.app/Contents/Developer/Toolchains/XcodeDefault.xctoolchain/usr/include/c++/v1/iterator
FN:907,_ZNSt3__119ostreambuf_iteratorIcNS_11char_traitsIcEEEC1ERNS_13basic_ostreamIcS2_EE
FN:907,_ZNSt3__119ostreambuf_iteratorIcNS_11char_traitsIcEEEC2ERNS_13basic_ostreamIcS2_EE
FN:920,_ZNKSt3__119ostreambuf_iteratorIcNS_11char_traitsIcEEE6failedEv
FNDA:1,_ZNSt3__119ostreambuf_iteratorIcNS_11char_traitsIcEEEC1ERNS_13basic_ostreamIcS2_EE
FNDA:1,_ZNSt3__119ostreambuf_iteratorIcNS_11char_traitsIcEEEC2ERNS_13basic_ostreamIcS2_EE
FNDA:1,_ZNKSt3__119ostreambuf_iteratorIcNS_11char_traitsIcEEE6failedEv
FNF:3
FNH:3
DA:908,3
DA:920,1
LF:2
LH:2
end_of_record
SF:/Applications/Xcode.app/Contents/Developer/Toolchains/XcodeDefault.xctoolchain/usr/include/c++/v1/locale
FN:1482,_ZNSt3__116__pad_and_outputIcNS_11char_traitsIcEEEENS_19ostreambuf_iteratorIT_T0_EES6_PKS4_S8_S8_RNS_8ios_baseES4_
FNDA:1,_ZNSt3__116__pad_and_outputIcNS_11char_traitsIcEEEENS_19ostreambuf_iteratorIT_T0_EES6_PKS4_S8_S8_RNS_8ios_baseES4_
FNF:1
FNH:1
DA:1486,1
DA:1487,0
DA:1488,1
DA:1489,1
DA:1490,1
DA:1491,0
DA:1493,1
DA:1494,1
DA:1495,1
DA:1497,0
DA:1499,0
DA:1500,0
DA:1502,0
DA:1503,1
DA:1505,0
DA:1506,0
DA:1508,0
DA:1509,0
DA:1511,0
DA:1512,1
DA:1513,1
DA:1515,1
DA:1517,0
DA:1518,0
DA:1520,1
DA:1521,1
DA:1522,1
DA:1523,1
LF:28
LH:15
end_of_record
SF:/Applications/Xcode.app/Contents/Developer/Toolchains/XcodeDefault.xctoolchain/usr/include/c++/v1/memory
FN:915,_ZNSt3__114pointer_traitsIPKcE10pointer_toERS1_
FN:1041,_ZNSt3__116__to_raw_pointerIKcEEPT_S3_
FN:1655,_ZNSt3__19allocatorIcEC2Ev
FN:2164,_ZNSt3__128__libcpp_compressed_pair_impINS_12basic_stringIcNS_11char_traitsIcEENS_9allocatorIcEEE5__repES5_Lj2EEC2Ev
FN:2227,_ZNKSt3__128__libcpp_compressed_pair_impINS_12basic_stringIcNS_11char_traitsIcEENS_9allocatorIcEEE5__repES5_Lj2EE5firstEv
FN:2343,_ZNSt3__117__compressed_pairINS_12basic_stringIcNS_11char_traitsIcEENS_9allocatorIcEEE5__repES5_EC1Ev
FN:2343,_ZNSt3__117__compressed_pairINS_12basic_stringIcNS_11char_traitsIcEENS_9allocatorIcEEE5__repES5_EC2Ev
FN:2399,_ZNKSt3__117__compressed_pairINS_12basic_stringIcNS_11char_traitsIcEENS_9allocatorIcEEE5__repES5_E5firstEv
FNDA:0,_ZNSt3__114pointer_traitsIPKcE10pointer_toERS1_
FNDA:0,_ZNSt3__116__to_raw_pointerIKcEEPT_S3_
FNDA:0,_ZNSt3__19allocatorIcEC2Ev
FNDA:0,_ZNSt3__128__libcpp_compressed_pair_impINS_12basic_stringIcNS_11char_traitsIcEENS_9allocatorIcEEE5__repES5_Lj2EEC2Ev
FNDA:0,_ZNKSt3__128__libcpp_compressed_pair_impINS_12basic_stringIcNS_11char_traitsIcEENS_9allocatorIcEEE5__repES5_Lj2EE5firstEv
FNDA:0,_ZNSt3__117__compressed_pairINS_12basic_stringIcNS_11char_traitsIcEENS_9allocatorIcEEE5__repES5_EC1Ev
FNDA:0,_ZNSt3__117__compressed_pairINS_12basic_stringIcNS_11char_traitsIcEENS_9allocatorIcEEE5__repES5_EC2Ev
FNDA:0,_ZNKSt3__117__compressed_pairINS_12basic_stringIcNS_11char_traitsIcEENS_9allocatorIcEEE5__repES5_E5firstEv
FNF:8
FNH:0
DA:917,0
DA:1043,0
DA:1655,0
DA:2164,0
DA:2227,0
DA:2343,0
DA:2399,0
LF:7
LH:0
end_of_record
SF:/Applications/Xcode.app/Contents/Developer/Toolchains/XcodeDefault.xctoolchain/usr/include/c++/v1/ostream
FN:240,_ZNKSt3__113basic_ostreamIcNS_11char_traitsIcEEE6sentrycvbEv
FN:320,_ZNSt3__113basic_ostreamIcNS_11char_traitsIcEEElsEPFRS3_S4_E
FN:744,_ZNSt3__124__put_character_sequenceIcNS_11char_traitsIcEEEERNS_13basic_ostreamIT_T0_EES7_PKS4_m
FN:892,_ZNSt3__1lsINS_11char_traitsIcEEEERNS_13basic_ostreamIcT_EES6_PKc
FN:1032,_ZNSt3__14endlIcNS_11char_traitsIcEEEERNS_13basic_ostreamIT_T0_EES7_
FNDA:1,_ZNKSt3__113basic_ostreamIcNS_11char_traitsIcEEE6sentrycvbEv
FNDA:1,_ZNSt3__113basic_ostreamIcNS_11char_traitsIcEEElsEPFRS3_S4_E
FNDA:1,_ZNSt3__124__put_character_sequenceIcNS_11char_traitsIcEEEERNS_13basic_ostreamIT_T0_EES7_PKS4_m
FNDA:1,_ZNSt3__1lsINS_11char_traitsIcEEEERNS_13basic_ostreamIcT_EES6_PKc
FNDA:1,_ZNSt3__14endlIcNS_11char_traitsIcEEEERNS_13basic_ostreamIT_T0_EES7_
FNF:5
FNH:5
DA:240,1
DA:322,1
DA:751,1
DA:752,2
DA:755,3
DA:756,1
DA:757,4
DA:758,0
DA:759,1
DA:760,1
DA:761,1
DA:762,1
DA:763,0
DA:764,1
DA:766,2
DA:769,0
DA:770,0
DA:772,1
DA:773,0
DA:894,1
DA:1034,1
DA:1035,1
DA:1036,1
LF:23
LH:18
end_of_record
SF:/Applications/Xcode.app/Contents/Developer/Toolchains/XcodeDefault.xctoolchain/usr/include/c++/v1/streambuf
FN:358,_ZNSt3__115basic_streambufIcNS_11char_traitsIcEEE5sputnEPKcl
FNDA:1,_ZNSt3__115basic_streambufIcNS_11char_traitsIcEEE5sputnEPKcl
FNF:1
FNH:1
DA:360,1
LF:1
LH:1
end_of_record
SF:/Applications/Xcode.app/Contents/Developer/Toolchains/XcodeDefault.xctoolchain/usr/include/c++/v1/string
FN:640,_ZNSt3__111char_traitsIcE6lengthEPKc
FN:659,_ZNSt3__111char_traitsIcE11eq_int_typeEii
FN:661,_ZNSt3__111char_traitsIcE3eofEv
FN:1600,_ZNKSt3__112basic_stringIcNS_11char_traitsIcEENS_9allocatorIcEEE4dataEv
FN:1663,_ZNKSt3__112basic_stringIcNS_11char_traitsIcEENS_9allocatorIcEEE9__is_longEv
FN:1745,_ZNKSt3__112basic_stringIcNS_11char_traitsIcEENS_9allocatorIcEEE18__get_long_pointerEv
FN:1751,_ZNKSt3__112basic_stringIcNS_11char_traitsIcEENS_9allocatorIcEEE19__get_short_pointerEv
FN:1757,_ZNKSt3__112basic_stringIcNS_11char_traitsIcEENS_9allocatorIcEEE13__get_pointerEv
FN:2131,_ZNSt3__112basic_stringIcNS_11char_traitsIcEENS_9allocatorIcEEEC2Emc
FN:2131,_ZNSt3__112basic_stringIcNS_11char_traitsIcEENS_9allocatorIcEEEC1Emc
FNDA:1,_ZNSt3__111char_traitsIcE6lengthEPKc
FNDA:1,_ZNSt3__111char_traitsIcE11eq_int_typeEii
FNDA:1,_ZNSt3__111char_traitsIcE3eofEv
FNDA:0,_ZNKSt3__112basic_stringIcNS_11char_traitsIcEENS_9allocatorIcEEE4dataEv
FNDA:0,_ZNKSt3__112basic_stringIcNS_11char_traitsIcEENS_9allocatorIcEEE9__is_longEv
FNDA:0,_ZNKSt3__112basic_stringIcNS_11char_traitsIcEENS_9allocatorIcEEE18__get_long_pointerEv
FNDA:0,_ZNKSt3__112basic_stringIcNS_11char_traitsIcEENS_9allocatorIcEEE19__get_short_pointerEv
FNDA:0,_ZNKSt3__112basic_stringIcNS_11char_traitsIcEENS_9allocatorIcEEE13__get_pointerEv
FNDA:0,_ZNSt3__112basic_stringIcNS_11char_traitsIcEENS_9allocatorIcEEEC1Emc
FNDA:0,_ZNSt3__112basic_stringIcNS_11char_traitsIcEENS_9allocatorIcEEEC2Emc
FNF:10
FNH:3
DA:640,1
DA:660,1
DA:662,1
DA:1343,0
DA:1600,0
DA:1664,0
DA:1746,0
DA:1752,0
DA:1758,0
DA:2132,0
DA:2133,0
DA:2137,0
LF:12
LH:3
end_of_record
SF:/Users/sun/Documents/development/llama/tmp/Project-Llama/hw.cpp
FN:4,main
FNDA:1,main
FNF:1
FNH:1
DA:5,1
DA:6,1
LF:2
LH:2
end_of_record
